target datalayout = "e-m:e-p270:32:32-p271:32:32-p272:64:64-i64:64-i128:128-f80:128-n8:16:32:64-S128"
target triple = "x86_64-pc-linux-gnu"

%"class.sat::literal" = type { i32 }
%"struct.sat::local_search::var_info" = type { i8, i32, i8, %"class.sat::literal", i8, i8, i32, i32, i32, %class.svector.1, [2 x %class.svector.11], [2 x %class.svector.4], i32, %class.ema, double }
%class.svector.1 = type { %class.vector.2 }
%class.vector.2 = type { ptr }
%class.svector.11 = type { %class.vector.12 }
%class.vector.12 = type { ptr }
%class.svector.4 = type { %class.vector.5 }
%class.vector.5 = type { ptr }
%class.ema = type { double, double, double, i32, i32 }
%"class.sat::local_search" = type { %"class.sat::i_local_search", %"struct.sat::local_search::stats", %"class.sat::local_search_config", %class.vector, %class.svector, %class.svector.1, %class.vector.3, %class.svector.4, %class.svector.4, i32, i8, i8, %class.svector.1, %class.svector.1, %class.svector.1, i8, i32, double, double, i32, i32, double, double, %class.reslimit, %class.random_gen, ptr, %class.svector.9 }
%"class.sat::i_local_search" = type { ptr }
%"struct.sat::local_search::stats" = type { i32, i32 }
%"class.sat::local_search_config" = type { i32, i32, i32, i8, i8, double }
%class.vector = type { ptr }
%class.svector = type { %class.vector.0 }
%class.vector.0 = type { ptr }
%class.vector.3 = type { ptr }
%class.reslimit = type { %"struct.std::atomic", i8, i64, i64, %class.svector.6, %class.ptr_vector }
%"struct.std::atomic" = type { %"struct.std::__atomic_base" }
%"struct.std::__atomic_base" = type { i32 }
%class.svector.6 = type { %class.vector.7 }
%class.vector.7 = type { ptr }
%class.ptr_vector = type { %class.vector.8 }
%class.vector.8 = type { ptr }
%class.random_gen = type { i32 }
%class.svector.9 = type { %class.vector.10 }
%class.vector.10 = type { ptr }

; Function Attrs: mustprogress nounwind uwtable
define linkonce_odr hidden noundef nonnull align 8 dereferenceable(120) ptr @_ZN6vectorIN3sat12local_search8var_infoELb1EjEixEj(ptr noundef nonnull align 8 dereferenceable(8) %0, i32 noundef %1) #6 comdat align 2 {
  %3 = alloca ptr, align 8
  %4 = alloca i32, align 4
  store ptr %0, ptr %3, align 8, !tbaa !51
  store i32 %1, ptr %4, align 4, !tbaa !10
  %5 = load ptr, ptr %3, align 8
  %6 = getelementptr inbounds nuw %class.vector, ptr %5, i32 0, i32 0
  %7 = load ptr, ptr %6, align 8, !tbaa !73
  %8 = load i32, ptr %4, align 4, !tbaa !10
  %9 = zext i32 %8 to i64
  %10 = getelementptr inbounds nuw %"struct.sat::local_search::var_info", ptr %7, i64 %9
  ret ptr %10
}

; Function Attrs: mustprogress uwtable
define hidden void @_ZN3sat12local_search9set_phaseEjb(ptr noundef nonnull align 8 dereferenceable(232) %0, i32 noundef %1, i1 noundef zeroext %2) #4 align 2 {
  %4 = alloca ptr, align 8
  %5 = alloca i32, align 4
  %6 = alloca i8, align 1
  %7 = alloca ptr, align 8
  store ptr %0, ptr %4, align 8, !tbaa !3
  store i32 %1, ptr %5, align 4, !tbaa !10
  %8 = zext i1 %2 to i8
  store i8 %8, ptr %6, align 1, !tbaa !8
  %9 = load ptr, ptr %4, align 8
  call void @llvm.lifetime.start.p0(i64 8, ptr %7) #3
  %10 = getelementptr inbounds nuw %"class.sat::local_search", ptr %9, i32 0, i32 3
  %11 = load i32, ptr %5, align 4, !tbaa !10
  %12 = call noundef nonnull align 8 dereferenceable(120) ptr @_ZN6vectorIN3sat12local_search8var_infoELb1EjEixEj(ptr noundef nonnull align 8 dereferenceable(8) %10, i32 noundef %11)
  %13 = getelementptr inbounds nuw %"struct.sat::local_search::var_info", ptr %12, i32 0, i32 1
  store ptr %13, ptr %7, align 8, !tbaa !88
  %14 = load i8, ptr %6, align 1, !tbaa !8, !range !49, !noundef !50
  %15 = trunc i8 %14 to i1
  br i1 %15, label %16, label %24

16:                                               ; preds = %3
  %17 = load ptr, ptr %7, align 8, !tbaa !88
  %18 = load i32, ptr %17, align 4, !tbaa !10
  %19 = icmp ult i32 %18, 100
  br i1 %19, label %20, label %24

20:                                               ; preds = %16
  %21 = load ptr, ptr %7, align 8, !tbaa !88
  %22 = load i32, ptr %21, align 4, !tbaa !10
  %23 = add i32 %22, 1
  store i32 %23, ptr %21, align 4, !tbaa !10
  br label %24

24:                                               ; preds = %20, %16, %3
  %25 = load i8, ptr %6, align 1, !tbaa !8, !range !49, !noundef !50
  %26 = trunc i8 %25 to i1
  br i1 %26, label %35, label %27

27:                                               ; preds = %24
  %28 = load ptr, ptr %7, align 8, !tbaa !88
  %29 = load i32, ptr %28, align 4, !tbaa !10
  %30 = icmp ugt i32 %29, 0
  br i1 %30, label %31, label %35

31:                                               ; preds = %27
  %32 = load ptr, ptr %7, align 8, !tbaa !88
  %33 = load i32, ptr %32, align 4, !tbaa !10
  %34 = add i32 %33, -1
  store i32 %34, ptr %32, align 4, !tbaa !10
  br label %35

35:                                               ; preds = %31, %27, %24
  call void @llvm.lifetime.end.p0(i64 8, ptr %7) #3
  ret void
}