; Function Attrs: mustprogress nofree norecurse nosync nounwind willreturn memory(readwrite, inaccessiblemem: none) uwtable
define hidden void @_ZN3sat12local_search9set_phaseEjb(ptr noundef nonnull readonly align 8 captures(none) dereferenceable(232) %0, i32 noundef %1, i1 noundef zeroext %2) local_unnamed_addr #11 align 2 {
  %4 = getelementptr inbounds nuw i8, ptr %0, i64 40
  %5 = load ptr, ptr %4, align 8, !tbaa !49
  %6 = zext i32 %1 to i64
  %7 = getelementptr inbounds nuw %"struct.sat::local_search::var_info", ptr %5, i64 %6, i32 1
  %8 = load i32, ptr %7, align 4, !tbaa !13
  br i1 %2, label %9, label %.critedge

9:                                                ; preds = %3
  %10 = icmp ult i32 %8, 100
  br i1 %10, label %.sink.split, label %12

.critedge:                                        ; preds = %3
  %.not = icmp eq i32 %8, 0
  br i1 %.not, label %12, label %.sink.split

.sink.split:                                      ; preds = %.critedge, %9
  %.sink8 = phi i32 [ 1, %9 ], [ -1, %.critedge ]
  %11 = add i32 %8, %.sink8
  store i32 %11, ptr %7, align 4, !tbaa !13
  br label %12

12:                                               ; preds = %.sink.split, %9, %.critedge
  ret void
}